target datalayout = "e-m:e-p270:32:32-p271:32:32-p272:64:64-i64:64-i128:128-f80:128-n8:16:32:64-S128"
target triple = "x86_64-pc-linux-gnu"

%"struct.std::_Rb_tree_header" = type { %"struct.std::_Rb_tree_node_base", i64 }
%"struct.std::_Rb_tree_node_base" = type { i32, ptr, ptr, ptr }
%"class.std::__cxx11::basic_string" = type { %"struct.std::__cxx11::basic_string<char>::_Alloc_hider", i64, %union.anon }
%"struct.std::__cxx11::basic_string<char>::_Alloc_hider" = type { ptr }
%union.anon = type { i64, [8 x i8] }
%class.ConstVisitor = type { %class.VNVisitor, i8, i8, i8, i8, i8, i8, i8, i8, i8, i8, i8, i8, ptr, ptr, ptr, ptr, %class.VDouble0, i8, [7 x i8], %class.V3UniqueNames, %"class.std::map.6" }
%class.VNVisitor = type { %class.VNVisitorConst, %class.VNDeleter }
%class.VNVisitorConst = type { ptr }
%class.VNDeleter = type { %"class.std::vector" }
%"class.std::vector" = type { %"struct.std::_Vector_base" }
%"struct.std::_Vector_base" = type { %"struct.std::_Vector_base<AstNode *, std::allocator<AstNode *>>::_Vector_impl" }
%"struct.std::_Vector_base<AstNode *, std::allocator<AstNode *>>::_Vector_impl" = type { %"struct.std::_Vector_base<AstNode *, std::allocator<AstNode *>>::_Vector_impl_data" }
%"struct.std::_Vector_base<AstNode *, std::allocator<AstNode *>>::_Vector_impl_data" = type { ptr, ptr, ptr }
%class.VDouble0 = type { double }
%class.V3UniqueNames = type <{ %"class.std::__cxx11::basic_string", %"class.std::map", i8, [7 x i8] }>
%"class.std::map" = type { %"class.std::_Rb_tree" }
%"class.std::_Rb_tree" = type { %"struct.std::_Rb_tree<std::__cxx11::basic_string<char>, std::pair<const std::__cxx11::basic_string<char>, unsigned int>, std::_Select1st<std::pair<const std::__cxx11::basic_string<char>, unsigned int>>, std::less<std::__cxx11::basic_string<char>>>::_Rb_tree_impl" }
%"struct.std::_Rb_tree<std::__cxx11::basic_string<char>, std::pair<const std::__cxx11::basic_string<char>, unsigned int>, std::_Select1st<std::pair<const std::__cxx11::basic_string<char>, unsigned int>>, std::less<std::__cxx11::basic_string<char>>>::_Rb_tree_impl" = type { [8 x i8], %"struct.std::_Rb_tree_header" }
%"class.std::map.6" = type { %"class.std::_Rb_tree.7" }
%"class.std::_Rb_tree.7" = type { %"struct.std::_Rb_tree<const AstNode *, std::pair<const AstNode *const, bool>, std::_Select1st<std::pair<const AstNode *const, bool>>, std::less<const AstNode *>>::_Rb_tree_impl" }
%"struct.std::_Rb_tree<const AstNode *, std::pair<const AstNode *const, bool>, std::_Select1st<std::pair<const AstNode *const, bool>>, std::less<const AstNode *>>::_Rb_tree_impl" = type { [8 x i8], %"struct.std::_Rb_tree_header" }

@_ZN9VIsCached14s_cachedCntGblE = external global i64, align 8

; Function Attrs: inlinehint mustprogress uwtable
define linkonce_odr dso_local noundef ptr @_ZN9VNVisitor25iterateSubtreeReturnEditsEP7AstNode(ptr noundef nonnull align 8 dereferenceable(32) %0, ptr noundef %1) #8 comdat align 2 {
  %3 = alloca ptr, align 8
  %4 = alloca ptr, align 8
  store ptr %0, ptr %3, align 8, !tbaa !87
  store ptr %1, ptr %4, align 8, !tbaa !4
  %5 = load ptr, ptr %3, align 8
  %6 = load ptr, ptr %4, align 8, !tbaa !4
  %7 = call noundef ptr @_ZN7AstNode25iterateSubtreeReturnEditsER9VNVisitor(ptr noundef nonnull align 8 dereferenceable(152) %6, ptr noundef nonnull align 8 dereferenceable(32) %5)
  ret ptr %7
}

; Function Attrs: mustprogress nounwind uwtable
define linkonce_odr dso_local void @_ZN9VIsCached14clearCacheTreeEv() #6 comdat align 2 {
  %1 = load i64, ptr @_ZN9VIsCached14s_cachedCntGblE, align 8, !tbaa !525
  %2 = add i64 %1, 1
  store i64 %2, ptr @_ZN9VIsCached14s_cachedCntGblE, align 8, !tbaa !525
  ret void
}

; Function Attrs: mustprogress uwtable
define linkonce_odr dso_local noundef ptr @_ZN12ConstVisitor14mainAcceptEditEP7AstNode(ptr noundef nonnull align 8 dereferenceable(232) %0, ptr noundef %1) #4 comdat align 2 {
  %3 = alloca ptr, align 8
  %4 = alloca ptr, align 8
  store ptr %0, ptr %3, align 8, !tbaa !11
  store ptr %1, ptr %4, align 8, !tbaa !4
  %5 = load ptr, ptr %3, align 8
  call void @_ZN9VIsCached14clearCacheTreeEv()
  %6 = load ptr, ptr %4, align 8, !tbaa !4
  %7 = call noundef ptr @_ZN9VNVisitor25iterateSubtreeReturnEditsEP7AstNode(ptr noundef nonnull align 8 dereferenceable(32) %5, ptr noundef %6)
  ret ptr %7
}

; Function Attrs: mustprogress uwtable
define dso_local noundef ptr @_ZN7V3Const21constifyExpensiveEditEP7AstNode(ptr noundef %0) #4 align 2 personality ptr @__gxx_personality_v0 {
  %2 = alloca ptr, align 8
  %3 = alloca %class.ConstVisitor, align 8
  %4 = alloca ptr, align 8
  %5 = alloca i32, align 4
  store ptr %0, ptr %2, align 8, !tbaa !4
  call void @llvm.lifetime.start.p0(i64 232, ptr %3) #3
  call void @_ZN12ConstVisitorC2ENS_8ProcModeEb(ptr noundef nonnull align 8 dereferenceable(232) %3, i8 noundef zeroext 6, i1 noundef zeroext false)
  %6 = load ptr, ptr %2, align 8, !tbaa !4
  %7 = invoke noundef ptr @_ZN12ConstVisitor14mainAcceptEditEP7AstNode(ptr noundef nonnull align 8 dereferenceable(232) %3, ptr noundef %6)
          to label %8 unwind label %10

8:                                                ; preds = %1
  store ptr %7, ptr %2, align 8, !tbaa !4
  %9 = load ptr, ptr %2, align 8, !tbaa !4
  call void @_ZN12ConstVisitorD2Ev(ptr noundef nonnull align 8 dereferenceable(232) %3) #3
  call void @llvm.lifetime.end.p0(i64 232, ptr %3) #3
  ret ptr %9

10:                                               ; preds = %1
  %11 = landingpad { ptr, i32 }
          cleanup
  %12 = extractvalue { ptr, i32 } %11, 0
  store ptr %12, ptr %4, align 8
  %13 = extractvalue { ptr, i32 } %11, 1
  store i32 %13, ptr %5, align 4
  call void @_ZN12ConstVisitorD2Ev(ptr noundef nonnull align 8 dereferenceable(232) %3) #3
  call void @llvm.lifetime.end.p0(i64 232, ptr %3) #3
  br label %14

14:                                               ; preds = %10
  %15 = load ptr, ptr %4, align 8
  %16 = load i32, ptr %5, align 4
  %17 = insertvalue { ptr, i32 } poison, ptr %15, 0
  %18 = insertvalue { ptr, i32 } %17, i32 %16, 1
  resume { ptr, i32 } %18
}